target datalayout = "e-m:e-p270:32:32-p271:32:32-p272:64:64-i64:64-i128:128-f80:128-n8:16:32:64-S128"
target triple = "x86_64-pc-linux-gnu"

@hf_sua_sequence_number_reserved = internal global i32 0, align 4
@hf_sua_sequence_number_rec_number = internal global i32 0, align 4
@hf_sua_sequence_number_more_data_bit = internal global i32 0, align 4
@hf_sua_sequence_number_sent_number = internal global i32 0, align 4
@hf_sua_sequence_number_spare_bit = internal global i32 0, align 4
@ett_sua_sequence_number_rec_number = internal global i32 0, align 4
@ett_sua_sequence_number_sent_number = internal global i32 0, align 4
@.str.460 = private unnamed_addr constant [24 x i8] c"Receive Sequence Number\00", align 1
@.str.461 = private unnamed_addr constant [21 x i8] c"Sent Sequence Number\00", align 1

; Function Attrs: null_pointer_is_valid sspstrong uwtable
define internal void @dissect_sequence_number_parameter(ptr noundef %0, ptr noundef %1) #0 {
  %3 = alloca ptr, align 8
  %4 = alloca ptr, align 8
  %5 = alloca ptr, align 8
  %6 = alloca ptr, align 8
  store ptr %0, ptr %3, align 8
  store ptr %1, ptr %4, align 8
  call void @llvm.lifetime.start.p0(i64 8, ptr %5) #6
  call void @llvm.lifetime.start.p0(i64 8, ptr %6) #6
  %7 = load ptr, ptr %4, align 8
  %8 = load i32, ptr @hf_sua_sequence_number_reserved, align 4
  %9 = load ptr, ptr %3, align 8
  %10 = call ptr @proto_tree_add_item(ptr noundef %7, i32 noundef %8, ptr noundef %9, i32 noundef 4, i32 noundef 2, i32 noundef 0)
  %11 = load ptr, ptr %4, align 8
  %12 = load ptr, ptr %3, align 8
  %13 = load i32, ptr @ett_sua_sequence_number_rec_number, align 4
  %14 = call ptr @proto_tree_add_subtree(ptr noundef %11, ptr noundef %12, i32 noundef 6, i32 noundef 1, i32 noundef %13, ptr noundef null, ptr noundef @.str.460)
  store ptr %14, ptr %6, align 8
  %15 = load ptr, ptr %6, align 8
  %16 = load i32, ptr @hf_sua_sequence_number_rec_number, align 4
  %17 = load ptr, ptr %3, align 8
  %18 = call ptr @proto_tree_add_item(ptr noundef %15, i32 noundef %16, ptr noundef %17, i32 noundef 6, i32 noundef 1, i32 noundef 0)
  %19 = load ptr, ptr %6, align 8
  %20 = load i32, ptr @hf_sua_sequence_number_more_data_bit, align 4
  %21 = load ptr, ptr %3, align 8
  %22 = call ptr @proto_tree_add_item(ptr noundef %19, i32 noundef %20, ptr noundef %21, i32 noundef 6, i32 noundef 1, i32 noundef 0)
  %23 = load ptr, ptr %4, align 8
  %24 = load ptr, ptr %3, align 8
  %25 = load i32, ptr @ett_sua_sequence_number_sent_number, align 4
  %26 = call ptr @proto_tree_add_subtree(ptr noundef %23, ptr noundef %24, i32 noundef 7, i32 noundef 1, i32 noundef %25, ptr noundef null, ptr noundef @.str.461)
  store ptr %26, ptr %5, align 8
  %27 = load ptr, ptr %5, align 8
  %28 = load i32, ptr @hf_sua_sequence_number_sent_number, align 4
  %29 = load ptr, ptr %3, align 8
  %30 = call ptr @proto_tree_add_item(ptr noundef %27, i32 noundef %28, ptr noundef %29, i32 noundef 7, i32 noundef 1, i32 noundef 0)
  %31 = load ptr, ptr %5, align 8
  %32 = load i32, ptr @hf_sua_sequence_number_spare_bit, align 4
  %33 = load ptr, ptr %3, align 8
  %34 = call ptr @proto_tree_add_item(ptr noundef %31, i32 noundef %32, ptr noundef %33, i32 noundef 7, i32 noundef 1, i32 noundef 0)
  call void @llvm.lifetime.end.p0(i64 8, ptr %6) #6
  call void @llvm.lifetime.end.p0(i64 8, ptr %5) #6
  ret void
}