; Function Attrs: null_pointer_is_valid sspstrong uwtable
define internal fastcc void @dissect_sequence_number_parameter(ptr noundef %0, ptr noundef %1) unnamed_addr #0 {
  %3 = load i32, ptr @hf_sua_sequence_number_reserved, align 4
  %4 = tail call ptr @proto_tree_add_item(ptr noundef %1, i32 noundef %3, ptr noundef %0, i32 noundef 4, i32 noundef 2, i32 noundef 0)
  %5 = load i32, ptr @ett_sua_sequence_number_rec_number, align 4
  %6 = tail call ptr @proto_tree_add_subtree(ptr noundef %1, ptr noundef %0, i32 noundef 6, i32 noundef 1, i32 noundef %5, ptr noundef null, ptr noundef nonnull @.str.460)
  %7 = load i32, ptr @hf_sua_sequence_number_rec_number, align 4
  %8 = tail call ptr @proto_tree_add_item(ptr noundef %6, i32 noundef %7, ptr noundef %0, i32 noundef 6, i32 noundef 1, i32 noundef 0)
  %9 = load i32, ptr @hf_sua_sequence_number_more_data_bit, align 4
  %10 = tail call ptr @proto_tree_add_item(ptr noundef %6, i32 noundef %9, ptr noundef %0, i32 noundef 6, i32 noundef 1, i32 noundef 0)
  %11 = load i32, ptr @ett_sua_sequence_number_sent_number, align 4
  %12 = tail call ptr @proto_tree_add_subtree(ptr noundef %1, ptr noundef %0, i32 noundef 7, i32 noundef 1, i32 noundef %11, ptr noundef null, ptr noundef nonnull @.str.461)
  %13 = load i32, ptr @hf_sua_sequence_number_sent_number, align 4
  %14 = tail call ptr @proto_tree_add_item(ptr noundef %12, i32 noundef %13, ptr noundef %0, i32 noundef 7, i32 noundef 1, i32 noundef 0)
  %15 = load i32, ptr @hf_sua_sequence_number_spare_bit, align 4
  %16 = tail call ptr @proto_tree_add_item(ptr noundef %12, i32 noundef %15, ptr noundef %0, i32 noundef 7, i32 noundef 1, i32 noundef 0)
  ret void
}